target datalayout = "e-m:e-p270:32:32-p271:32:32-p272:64:64-i64:64-i128:128-f80:128-n8:16:32:64-S128"
target triple = "x86_64-pc-linux-gnu"

%struct.H5S_pnt_node_t = type { ptr, [0 x i64] }
%struct.H5S_sel_iter_t = type { ptr, i32, [32 x i64], [32 x i64], i64, i64, i32, %union.anon.1 }
%union.anon.1 = type { %struct.H5S_hyper_iter_t }
%struct.H5S_hyper_iter_t = type { [32 x i64], [32 x i64], i32, i8, [32 x %struct.H5S_hyper_dim_t], [32 x i64], [32 x i64], [32 x i8], [32 x i64], ptr, [32 x ptr] }
%struct.H5S_hyper_dim_t = type { i64, i64, i64, i64 }
%struct.H5S_point_iter_t = type { ptr, ptr }

@H5S_init_g = external global i8, align 1
@H5_libterm_g = external global i8, align 1

; Function Attrs: nounwind uwtable
define internal i32 @H5S__point_iter_next_block(ptr noundef %0) #0 {
  %2 = alloca ptr, align 8
  store ptr %0, ptr %2, align 8, !tbaa !80
  %3 = load i8, ptr @H5S_init_g, align 1, !tbaa !8, !range !12, !noundef !13
  %4 = trunc i8 %3 to i1
  br i1 %4, label %9, label %5

5:                                                ; preds = %1
  %6 = load i8, ptr @H5_libterm_g, align 1, !tbaa !8, !range !12, !noundef !13
  %7 = trunc i8 %6 to i1
  %8 = xor i1 %7, true
  br label %9

9:                                                ; preds = %5, %1
  %10 = phi i1 [ true, %1 ], [ %8, %5 ]
  %11 = xor i1 %10, true
  %12 = xor i1 %11, true
  %13 = zext i1 %12 to i32
  %14 = sext i32 %13 to i64
  %15 = call i64 @llvm.expect.i64(i64 %14, i64 1)
  %16 = icmp ne i64 %15, 0
  br i1 %16, label %17, label %27

17:                                               ; preds = %9
  %18 = load ptr, ptr %2, align 8, !tbaa !80
  %19 = getelementptr inbounds nuw %struct.H5S_sel_iter_t, ptr %18, i32 0, i32 7
  %20 = getelementptr inbounds nuw %struct.H5S_point_iter_t, ptr %19, i32 0, i32 1
  %21 = load ptr, ptr %20, align 8, !tbaa !14
  %22 = getelementptr inbounds nuw %struct.H5S_pnt_node_t, ptr %21, i32 0, i32 0
  %23 = load ptr, ptr %22, align 8, !tbaa !38
  %24 = load ptr, ptr %2, align 8, !tbaa !80
  %25 = getelementptr inbounds nuw %struct.H5S_sel_iter_t, ptr %24, i32 0, i32 7
  %26 = getelementptr inbounds nuw %struct.H5S_point_iter_t, ptr %25, i32 0, i32 1
  store ptr %23, ptr %26, align 8, !tbaa !14
  br label %27

27:                                               ; preds = %17, %9
  ret i32 0
}