; Function Attrs: mustprogress nofree norecurse nosync nounwind willreturn memory(read, argmem: readwrite, inaccessiblemem: none) uwtable
define internal noundef i32 @H5S__point_iter_next_block(ptr noundef captures(none) %0) #12 {
  %2 = load i8, ptr @H5S_init_g, align 1, !tbaa !3, !range !7, !noundef !8
  %3 = trunc nuw i8 %2 to i1
  %4 = load i8, ptr @H5_libterm_g, align 1, !range !7
  %5 = trunc nuw i8 %4 to i1
  %6 = xor i1 %5, true
  %7 = select i1 %3, i1 true, i1 %6
  br i1 %7, label %8, label %12, !prof !9

8:                                                ; preds = %1
  %9 = getelementptr inbounds nuw i8, ptr %0, i64 560
  %10 = load ptr, ptr %9, align 8, !tbaa !10
  %11 = load ptr, ptr %10, align 8, !tbaa !25
  store ptr %11, ptr %9, align 8, !tbaa !10
  br label %12

12:                                               ; preds = %8, %1
  ret i32 0
}